(lp0
(lp1
I35996
aI1970
aI35782
aa(lp2
I33974
aI2037
aI37582
aa(lp3
I109639
aI9774
aI173576
aa(lp4
I68523
aI4575
aI27785
aa(lp5
I35274
aI1625
aI11540
aa(lp6
I37177
aI5872
aI3358
aa(lp7
I25674
aI1028
aI3471
aa(lp8
I22711
aI1897
aI1457
aa(lp9
I1552
aI79
aI78
aa(lp10
I336
aI16
aI2
aa(lp11
I3634
aI103
aI8186
aa(lp12
I12360
aI823
aI37314
aa(lp13
I6311
aI827
aI29159
aa(lp14
I4615
aI1387
aI43030
aa(lp15
I611
aI1014
aI24813
aa(lp16
I83030
aI7863
aI44260
aa.