(lp0
(lp1
I55058
aI3711
aI36958
aa(lp2
I52171
aI4003
aI39793
aa(lp3
I133549
aI12948
aI140321
aa(lp4
I46191
aI2843
aI14589
aa(lp5
I28600
aI1476
aI5764
aa(lp6
I15005
aI1499
aI1151
aa(lp7
I9128
aI94
aI940
aa(lp8
I7624
aI240
aI384
aa(lp9
I699
aI12
aI11
aa(lp10
I92
aI0
aI1
aa(lp11
I4125
aI86
aI5838
aa(lp12
I15014
aI965
aI28468
aa(lp13
I8084
aI783
aI22477
aa(lp14
I6661
aI1493
aI31659
aa(lp15
I1809
aI1272
aI19210
aa(lp16
I40796
aI2590
aI17655
aa(lp17
I16571
aI1566
aI25648
aa(lp18
I12837
aI1785
aI27325
aa(lp19
I26124
aI3485
aI61824
aa.