(lp0
(lp1
I80903
aI5194
aI40690
aa(lp2
I75647
aI5527
aI44968
aa(lp3
I133658
aI10432
aI109461
aa(lp4
I29542
aI1008
aI7666
aa(lp5
I22199
aI706
aI2653
aa(lp6
I4116
aI229
aI316
aa(lp7
I2182
aI6
aI131
aa(lp8
I1680
aI8
aI57
aa(lp9
I283
aI0
aI0
aa(lp10
I19
aI0
aI0
aa(lp11
I14744
aI514
aI15013
aa(lp12
I53894
aI3761
aI71831
aa(lp13
I31704
aI3593
aI58976
aa(lp14
I30699
aI6185
aI87097
aa(lp15
I10575
aI4342
aI50814
aa(lp16
I13799
aI512
aI4856
aa(lp17
I19196
aI1096
aI15118
aa(lp18
I14340
aI1566
aI15967
aa(lp19
I35577
aI4048
aI50907
aa(lp20
I0
aI0
aI0
aa.