(lp0
(lp1
(lp2
I4232
aI19
aI828
aa(lp3
I5486
aI200
aI4462
aa(lp4
I5753
aI208
aI4255
aa(lp5
I5621
aI190
aI4184
aa(lp6
I5670
aI193
aI4174
aa(lp7
I5765
aI209
aI4151
aa(lp8
I5698
aI191
aI4063
aa(lp9
I5822
aI169
aI4072
aa(lp10
I5823
aI188
aI4188
aa(lp11
I6214
aI220
aI3533
aa(lp12
I6266
aI175
aI3478
aa(lp13
I6281
aI177
aI3516
aa(lp14
I6404
aI220
aI3362
aaa(lp15
(lp16
I1853
aI58
aI1382
aa(lp17
I3264
aI7
aI1735
aa(lp18
I3401
aI165
aI6510
aa(lp19
I3374
aI190
aI6487
aa(lp20
I3391
aI193
aI6439
aa(lp21
I3528
aI178
aI6424
aa(lp22
I3686
aI185
aI6197
aa(lp23
I3787
aI194
aI6105
aa(lp24
I4004
aI196
aI5925
aa(lp25
I4619
aI202
aI5271
aa(lp26
I4821
aI216
aI5110
aa(lp27
I5099
aI182
aI4868
aa(lp28
I5074
aI195
aI4480
aaa(lp29
(lp30
I1833
aI70
aI1465
aa(lp31
I1185
aI48
aI2178
aa(lp32
I3393
aI10
aI1676
aa(lp33
I3452
aI192
aI6419
aa(lp34
I3487
aI194
aI6335
aa(lp35
I3564
aI186
aI6307
aa(lp36
I3655
aI207
aI6127
aa(lp37
I3820
aI211
aI6006
aa(lp38
I3996
aI195
aI5906
aa(lp39
I4635
aI195
aI5278
aa(lp40
I4846
aI182
aI4986
aa(lp41
I5007
aI198
aI4763
aa(lp42
I5297
aI168
aI4496
aaa(lp43
(lp44
I1925
aI72
aI1403
aa(lp45
I1155
aI71
aI2078
aa(lp46
I1159
aI73
aI2077
aa(lp47
I3327
aI15
aI1748
aa(lp48
I3512
aI205
aI6425
aa(lp49
I3539
aI208
aI6167
aa(lp50
I3697
aI202
aI6169
aa(lp51
I3803
aI200
aI6020
aa(lp52
I3960
aI208
aI5867
aa(lp53
I4760
aI199
aI5256
aa(lp54
I4799
aI203
aI4996
aa(lp55
I4967
aI201
aI4802
aa(lp56
I5284
aI162
aI4454
aaa(lp57
(lp58
I1891
aI75
aI1349
aa(lp59
I1153
aI47
aI2164
aa(lp60
I1190
aI57
aI2079
aa(lp61
I1150
aI71
aI2104
aa(lp62
I3290
aI15
aI1677
aa(lp63
I3649
aI194
aI6233
aa(lp64
I3667
aI217
aI6060
aa(lp65
I3907
aI177
aI5949
aa(lp66
I4095
aI207
aI5782
aa(lp67
I4643
aI206
aI5118
aa(lp68
I4799
aI181
aI4914
aa(lp69
I5145
aI199
aI4733
aa(lp70
I5295
aI186
aI4420
aaa(lp71
(lp72
I1914
aI60
aI1389
aa(lp73
I1151
aI66
aI2056
aa(lp74
I1236
aI67
aI1981
aa(lp75
I1205
aI71
aI2030
aa(lp76
I1224
aI73
aI2119
aa(lp77
I3370
aI21
aI1661
aa(lp78
I3805
aI173
aI6091
aa(lp79
I3905
aI199
aI5946
aa(lp80
I4077
aI194
aI5822
aa(lp81
I4759
aI182
aI5145
aa(lp82
I4771
aI199
aI4838
aa(lp83
I5203
aI215
aI4685
aa(lp84
I5441
aI182
aI4374
aaa(lp85
(lp86
I1907
aI68
aI1463
aa(lp87
I1240
aI62
aI2011
aa(lp88
I1204
aI65
aI2106
aa(lp89
I1260
aI64
aI2069
aa(lp90
I1224
aI55
aI2104
aa(lp91
I1264
aI62
aI1997
aa(lp92
I3247
aI18
aI1729
aa(lp93
I3801
aI184
aI5978
aa(lp94
I4136
aI200
aI5795
aa(lp95
I4795
aI185
aI4965
aa(lp96
I4966
aI214
aI5010
aa(lp97
I5175
aI188
aI4728
aa(lp98
I5466
aI210
aI4222
aaa(lp99
(lp100
I1889
aI58
aI1286
aa(lp101
I1264
aI61
aI2037
aa(lp102
I1347
aI82
aI2013
aa(lp103
I1221
aI59
aI1906
aa(lp104
I1266
aI68
aI2004
aa(lp105
I1365
aI80
aI1913
aa(lp106
I1265
aI67
aI1980
aa(lp107
I3385
aI11
aI1764
aa(lp108
I4082
aI208
aI5715
aa(lp109
I4817
aI211
aI4965
aa(lp110
I5050
aI203
aI4744
aa(lp111
I5268
aI201
aI4629
aa(lp112
I5432
aI211
aI4441
aaa(lp113
(lp114
I1970
aI76
aI1261
aa(lp115
I1277
aI63
aI2036
aa(lp116
I1382
aI80
aI1982
aa(lp117
I1256
aI62
aI1851
aa(lp118
I1382
aI73
aI1938
aa(lp119
I1305
aI60
aI1914
aa(lp120
I1368
aI69
aI1886
aa(lp121
I1396
aI68
aI1941
aa(lp122
I3199
aI4
aI1730
aa(lp123
I4682
aI219
aI5123
aa(lp124
I4948
aI196
aI4767
aa(lp125
I5287
aI239
aI4489
aa(lp126
I5471
aI193
aI4295
aaa(lp127
(lp128
I2140
aI74
aI1157
aa(lp129
I1503
aI67
aI1685
aa(lp130
I1505
aI63
aI1692
aa(lp131
I1521
aI63
aI1678
aa(lp132
I1578
aI65
aI1711
aa(lp133
I1504
aI59
aI1689
aa(lp134
I1549
aI65
aI1674
aa(lp135
I1505
aI68
aI1773
aa(lp136
I1587
aI62
aI1759
aa(lp137
I3904
aI6
aI974
aa(lp138
I5539
aI192
aI4363
aa(lp139
I5770
aI186
aI4048
aa(lp140
I6025
aI187
aI3856
aaa(lp141
(lp142
I2148
aI61
aI1060
aa(lp143
I1591
aI59
aI1649
aa(lp144
I1628
aI67
aI1665
aa(lp145
I1640
aI67
aI1694
aa(lp146
I1683
aI75
aI1662
aa(lp147
I1685
aI57
aI1614
aa(lp148
I1661
aI52
aI1555
aa(lp149
I1663
aI68
aI1693
aa(lp150
I1662
aI60
aI1681
aa(lp151
I1885
aI69
aI1405
aa(lp152
I3993
aI6
aI953
aa(lp153
I5884
aI216
aI4060
aa(lp154
I6103
aI205
aI3833
aaa(lp155
(lp156
I2166
aI69
aI1124
aa(lp157
I1731
aI73
aI1634
aa(lp158
I1669
aI65
aI1586
aa(lp159
I1703
aI72
aI1640
aa(lp160
I1687
aI71
aI1570
aa(lp161
I1680
aI61
aI1537
aa(lp162
I1741
aI62
aI1535
aa(lp163
I1706
aI63
aI1512
aa(lp164
I1731
aI48
aI1541
aa(lp165
I1927
aI75
aI1311
aa(lp166
I1971
aI68
aI1245
aa(lp167
I4230
aI15
aI883
aa(lp168
I6094
aI193
aI3743
aaa(lp169
(lp170
I2184
aI68
aI1148
aa(lp171
I1749
aI67
aI1474
aa(lp172
I1775
aI71
aI1530
aa(lp173
I1805
aI63
aI1515
aa(lp174
I1735
aI75
aI1534
aa(lp175
I1795
aI63
aI1500
aa(lp176
I1868
aI78
aI1424
aa(lp177
I1874
aI57
aI1446
aa(lp178
I1877
aI65
aI1499
aa(lp179
I2012
aI84
aI1279
aa(lp180
I2076
aI63
aI1185
aa(lp181
I2085
aI80
aI1260
aa(lp182
I4206
aI5
aI914
aaa.