(lp0
(lp1
(lp2
I19883
aI116
aI3561
aa(lp3
I25120
aI1924
aI20269
aa(lp4
I25352
aI1826
aI20158
aa(lp5
I25783
aI1961
aI19473
aa(lp6
I26116
aI1826
aI18828
aa(lp7
I26472
aI1714
aI19229
aa(lp8
I26896
aI1597
aI18693
aa(lp9
I27446
aI1357
aI18307
aa(lp10
I28219
aI1208
aI17838
aa(lp11
I28919
aI1112
aI16774
aa(lp12
I29625
aI1000
aI16613
aa(lp13
I29920
aI848
aI16397
aa(lp14
I30522
aI767
aI16053
aaa(lp15
(lp16
I8736
aI602
aI6553
aa(lp17
I11574
aI465
aI11459
aa(lp18
I13877
aI2914
aI30503
aa(lp19
I14240
aI2887
aI29928
aa(lp20
I14621
aI2807
aI29274
aa(lp21
I14776
aI2766
aI29389
aa(lp22
I14850
aI2660
aI29432
aa(lp23
I15987
aI2609
aI28502
aa(lp24
I17332
aI2429
aI27757
aa(lp25
I18482
aI2322
aI26374
aa(lp26
I19920
aI2170
aI25635
aa(lp27
I21432
aI2072
aI23924
aa(lp28
I22779
aI1894
aI22217
aaa(lp29
(lp30
I8818
aI624
aI6407
aa(lp31
I5333
aI956
aI9562
aa(lp32
I12513
aI416
aI10760
aa(lp33
I15183
aI2961
aI29363
aa(lp34
I15659
aI2778
aI28507
aa(lp35
I15716
aI2810
aI28813
aa(lp36
I15890
aI2665
aI28529
aa(lp37
I16339
aI2597
aI28041
aa(lp38
I17552
aI2419
aI27021
aa(lp39
I18883
aI2257
aI25775
aa(lp40
I20307
aI2209
aI24924
aa(lp41
I21756
aI2086
aI23651
aa(lp42
I23250
aI1938
aI21840
aaa(lp43
(lp44
I8927
aI641
aI6048
aa(lp45
I5481
aI963
aI9547
aa(lp46
I5550
aI889
aI9101
aa(lp47
I13346
aI338
aI9856
aa(lp48
I16376
aI2989
aI27539
aa(lp49
I16496
aI2832
aI27454
aa(lp50
I16693
aI2759
aI27667
aa(lp51
I17470
aI2562
aI27033
aa(lp52
I17999
aI2399
aI26486
aa(lp53
I19312
aI2326
aI25243
aa(lp54
I20679
aI2140
aI24466
aa(lp55
I22180
aI2049
aI22733
aa(lp56
I23743
aI1962
aI21472
aaa(lp57
(lp58
I9114
aI578
aI5972
aa(lp59
I5433
aI887
aI9299
aa(lp60
I5655
aI912
aI9034
aa(lp61
I5903
aI932
aI8559
aa(lp62
I14286
aI321
aI9095
aa(lp63
I17402
aI2753
aI27204
aa(lp64
I17716
aI2654
aI26582
aa(lp65
I18195
aI2499
aI26180
aa(lp66
I18901
aI2355
aI25932
aa(lp67
I19633
aI2317
aI25169
aa(lp68
I21194
aI2144
aI24150
aa(lp69
I22501
aI2074
aI22428
aa(lp70
I24322
aI1881
aI20897
aaa(lp71
(lp72
I9131
aI555
aI6002
aa(lp73
I5539
aI919
aI9402
aa(lp74
I5755
aI914
aI8948
aa(lp75
I6143
aI914
aI8764
aa(lp76
I6334
aI892
aI8633
aa(lp77
I14788
aI293
aI8528
aa(lp78
I18855
aI2566
aI26024
aa(lp79
I19057
aI2453
aI25597
aa(lp80
I19973
aI2275
aI25143
aa(lp81
I20707
aI2112
aI24344
aa(lp82
I21614
aI2009
aI23964
aa(lp83
I23395
aI1938
aI22044
aa(lp84
I24607
aI1864
aI20548
aaa(lp85
(lp86
I9327
aI460
aI5835
aa(lp87
I5654
aI822
aI9203
aa(lp88
I5903
aI874
aI8878
aa(lp89
I6135
aI842
aI8663
aa(lp90
I6464
aI835
aI8467
aa(lp91
I6743
aI791
aI8402
aa(lp92
I15418
aI240
aI7786
aa(lp93
I20123
aI2173
aI24701
aa(lp94
I20689
aI2140
aI24395
aa(lp95
I21524
aI1940
aI23553
aa(lp96
I22401
aI1802
aI22566
aa(lp97
I23577
aI1694
aI21806
aa(lp98
I25336
aI1675
aI20245
aaa(lp99
(lp100
I9436
aI463
aI5623
aa(lp101
I5874
aI823
aI9028
aa(lp102
I6112
aI866
aI8877
aa(lp103
I6333
aI803
aI8611
aa(lp104
I6463
aI823
aI8465
aa(lp105
I6947
aI784
aI7978
aa(lp106
I7176
aI746
aI7719
aa(lp107
I16227
aI224
aI7078
aa(lp108
I21630
aI1883
aI23552
aa(lp109
I22676
aI1775
aI22728
aa(lp110
I23289
aI1631
aI21975
aa(lp111
I24693
aI1602
aI20897
aa(lp112
I25408
aI1492
aI19990
aaa(lp113
(lp114
I9649
aI405
aI5820
aa(lp115
I6305
aI728
aI8637
aa(lp116
I6450
aI852
aI8487
aa(lp117
I6459
aI776
aI8403
aa(lp118
I6791
aI739
aI7907
aa(lp119
I7118
aI720
aI7958
aa(lp120
I7372
aI679
aI7646
aa(lp121
I7705
aI606
aI7308
aa(lp122
I16732
aI184
aI6553
aa(lp123
I23629
aI1641
aI22205
aa(lp124
I24478
aI1541
aI21001
aa(lp125
I25195
aI1465
aI20340
aa(lp126
I26569
aI1346
aI19404
aaa(lp127
(lp128
I9988
aI352
aI5317
aa(lp129
I6729
aI737
aI8261
aa(lp130
I6901
aI731
aI8024
aa(lp131
I6907
aI678
aI8054
aa(lp132
I7085
aI704
aI8034
aa(lp133
I7287
aI660
aI7679
aa(lp134
I7559
aI599
aI7371
aa(lp135
I7822
aI601
aI7181
aa(lp136
I8267
aI500
aI7013
aa(lp137
I17354
aI168
aI5874
aa(lp138
I25546
aI1283
aI20447
aa(lp139
I26616
aI1208
aI19615
aa(lp140
I27472
aI1146
aI18452
aaa(lp141
(lp142
I10371
aI329
aI5352
aa(lp143
I7136
aI683
aI7940
aa(lp144
I7439
aI687
aI7724
aa(lp145
I7429
aI671
aI7713
aa(lp146
I7755
aI652
aI7568
aa(lp147
I7531
aI648
aI7628
aa(lp148
I7846
aI603
aI7164
aa(lp149
I8407
aI530
aI6922
aa(lp150
I8592
aI488
aI6810
aa(lp151
I8907
aI428
aI6537
aa(lp152
I17963
aI147
aI5296
aa(lp153
I26927
aI1185
aI19364
aa(lp154
I28043
aI1105
aI18057
aaa(lp155
(lp156
I10319
aI300
aI5175
aa(lp157
I7357
aI636
aI7484
aa(lp158
I7746
aI592
aI7353
aa(lp159
I7748
aI621
aI7232
aa(lp160
I7874
aI627
aI7067
aa(lp161
I8109
aI592
aI6900
aa(lp162
I8426
aI555
aI6729
aa(lp163
I8624
aI483
aI6730
aa(lp164
I8884
aI474
aI6428
aa(lp165
I9162
aI420
aI6161
aa(lp166
I9330
aI373
aI6079
aa(lp167
I18732
aI150
aI4622
aa(lp168
I28578
aI942
aI17880
aaa(lp169
(lp170
I10525
aI261
aI4979
aa(lp171
I8102
aI600
aI7154
aa(lp172
I8239
aI586
aI6925
aa(lp173
I8340
aI624
aI6745
aa(lp174
I8440
aI616
aI6618
aa(lp175
I8553
aI599
aI6516
aa(lp176
I9066
aI498
aI6322
aa(lp177
I8917
aI484
aI6200
aa(lp178
I9311
aI419
aI6022
aa(lp179
I9433
aI360
aI5751
aa(lp180
I9663
aI356
aI5747
aa(lp181
I9733
aI282
aI5602
aa(lp182
I19067
aI140
aI4015
aaa.