(lp0
(lp1
(lp2
I443
aI4
aI92
aa(lp3
I562
aI18
aI469
aa(lp4
I572
aI25
aI408
aa(lp5
I516
aI23
aI408
aa(lp6
I570
aI18
aI437
aa(lp7
I600
aI16
aI425
aa(lp8
I557
aI23
aI398
aa(lp9
I536
aI15
aI400
aa(lp10
I561
aI13
aI424
aa(lp11
I604
aI35
aI356
aa(lp12
I608
aI15
aI325
aa(lp13
I593
aI18
aI373
aa(lp14
I615
aI13
aI311
aaa(lp15
(lp16
I172
aI7
aI147
aa(lp17
I290
aI1
aI169
aa(lp18
I345
aI14
aI659
aa(lp19
I305
aI16
aI649
aa(lp20
I331
aI20
aI640
aa(lp21
I341
aI14
aI621
aa(lp22
I378
aI23
aI626
aa(lp23
I386
aI26
aI564
aa(lp24
I411
aI19
aI611
aa(lp25
I448
aI13
aI534
aa(lp26
I468
aI24
aI496
aa(lp27
I472
aI19
aI469
aa(lp28
I534
aI26
aI453
aaa(lp29
(lp30
I181
aI3
aI171
aa(lp31
I120
aI6
aI215
aa(lp32
I299
aI0
aI156
aa(lp33
I323
aI18
aI635
aa(lp34
I342
aI16
aI633
aa(lp35
I336
aI18
aI667
aa(lp36
I393
aI20
aI566
aa(lp37
I380
aI23
aI624
aa(lp38
I390
aI22
aI572
aa(lp39
I454
aI29
aI493
aa(lp40
I484
aI17
aI485
aa(lp41
I497
aI16
aI445
aa(lp42
I524
aI15
aI436
aaa(lp43
(lp44
I191
aI11
aI133
aa(lp45
I102
aI9
aI211
aa(lp46
I112
aI10
aI194
aa(lp47
I339
aI1
aI180
aa(lp48
I338
aI14
aI629
aa(lp49
I373
aI27
aI614
aa(lp50
I345
aI24
aI604
aa(lp51
I393
aI19
aI615
aa(lp52
I393
aI23
aI577
aa(lp53
I462
aI16
aI505
aa(lp54
I478
aI21
aI546
aa(lp55
I535
aI20
aI474
aa(lp56
I485
aI15
aI417
aaa(lp57
(lp58
I198
aI4
aI138
aa(lp59
I117
aI6
aI218
aa(lp60
I130
aI7
aI186
aa(lp61
I107
aI5
aI223
aa(lp62
I344
aI2
aI161
aa(lp63
I366
aI25
aI644
aa(lp64
I351
aI16
aI582
aa(lp65
I377
aI17
aI567
aa(lp66
I401
aI17
aI566
aa(lp67
I439
aI25
aI510
aa(lp68
I474
aI16
aI463
aa(lp69
I512
aI18
aI493
aa(lp70
I505
aI16
aI395
aaa(lp71
(lp72
I182
aI8
aI141
aa(lp73
I122
aI10
aI195
aa(lp74
I123
aI5
aI169
aa(lp75
I108
aI9
aI200
aa(lp76
I136
aI6
aI196
aa(lp77
I359
aI3
aI148
aa(lp78
I351
aI14
aI595
aa(lp79
I370
aI21
aI605
aa(lp80
I395
aI16
aI503
aa(lp81
I458
aI24
aI506
aa(lp82
I498
aI15
aI459
aa(lp83
I496
aI25
aI454
aa(lp84
I545
aI20
aI458
aaa(lp85
(lp86
I194
aI9
aI141
aa(lp87
I132
aI3
aI210
aa(lp88
I121
aI1
aI215
aa(lp89
I116
aI9
aI198
aa(lp90
I129
aI7
aI219
aa(lp91
I129
aI6
aI202
aa(lp92
I326
aI1
aI201
aa(lp93
I351
aI18
aI541
aa(lp94
I419
aI18
aI582
aa(lp95
I487
aI24
aI450
aa(lp96
I490
aI18
aI473
aa(lp97
I515
aI27
aI474
aa(lp98
I520
aI20
aI420
aaa(lp99
(lp100
I177
aI4
aI123
aa(lp101
I131
aI4
aI199
aa(lp102
I142
aI6
aI195
aa(lp103
I104
aI5
aI183
aa(lp104
I115
aI10
aI189
aa(lp105
I138
aI4
aI182
aa(lp106
I116
aI8
aI221
aa(lp107
I344
aI3
aI159
aa(lp108
I404
aI17
aI531
aa(lp109
I475
aI15
aI474
aa(lp110
I519
aI20
aI442
aa(lp111
I552
aI25
aI472
aa(lp112
I541
aI16
aI433
aaa(lp113
(lp114
I192
aI10
aI107
aa(lp115
I135
aI4
aI199
aa(lp116
I153
aI9
aI203
aa(lp117
I121
aI9
aI173
aa(lp118
I133
aI5
aI198
aa(lp119
I144
aI8
aI191
aa(lp120
I130
aI8
aI204
aa(lp121
I130
aI14
aI184
aa(lp122
I283
aI1
aI167
aa(lp123
I469
aI19
aI509
aa(lp124
I538
aI28
aI470
aa(lp125
I525
aI24
aI429
aa(lp126
I525
aI24
aI380
aaa(lp127
(lp128
I212
aI6
aI102
aa(lp129
I136
aI6
aI172
aa(lp130
I142
aI6
aI161
aa(lp131
I147
aI5
aI160
aa(lp132
I173
aI4
aI164
aa(lp133
I156
aI7
aI165
aa(lp134
I147
aI9
aI145
aa(lp135
I146
aI4
aI180
aa(lp136
I150
aI7
aI168
aa(lp137
I358
aI1
aI83
aa(lp138
I527
aI18
aI441
aa(lp139
I548
aI24
aI419
aa(lp140
I559
aI14
aI380
aaa(lp141
(lp142
I206
aI4
aI97
aa(lp143
I162
aI8
aI141
aa(lp144
I156
aI3
aI152
aa(lp145
I142
aI8
aI173
aa(lp146
I163
aI9
aI163
aa(lp147
I186
aI7
aI159
aa(lp148
I158
aI6
aI140
aa(lp149
I167
aI6
aI175
aa(lp150
I162
aI5
aI185
aa(lp151
I192
aI9
aI139
aa(lp152
I384
aI1
aI85
aa(lp153
I629
aI18
aI414
aa(lp154
I583
aI31
aI375
aaa(lp155
(lp156
I214
aI7
aI115
aa(lp157
I193
aI6
aI150
aa(lp158
I158
aI7
aI154
aa(lp159
I180
aI9
aI155
aa(lp160
I172
aI5
aI142
aa(lp161
I174
aI5
aI142
aa(lp162
I177
aI9
aI152
aa(lp163
I186
aI13
aI141
aa(lp164
I176
aI5
aI163
aa(lp165
I180
aI5
aI130
aa(lp166
I180
aI10
aI124
aa(lp167
I388
aI1
aI93
aa(lp168
I645
aI22
aI375
aaa(lp169
(lp170
I210
aI8
aI123
aa(lp171
I142
aI7
aI141
aa(lp172
I154
aI7
aI164
aa(lp173
I167
aI3
aI136
aa(lp174
I164
aI5
aI142
aa(lp175
I192
aI5
aI156
aa(lp176
I164
aI12
aI146
aa(lp177
I200
aI3
aI137
aa(lp178
I175
aI0
aI129
aa(lp179
I211
aI13
aI131
aa(lp180
I204
aI6
aI107
aa(lp181
I208
aI7
aI128
aa(lp182
I424
aI1
aI73
aaa.