(lp0
(lp1
(lp2
I42
aI2
aI5
aa(lp3
I40
aI0
aI46
aa(lp4
I54
aI3
aI33
aa(lp5
I48
aI2
aI33
aa(lp6
I56
aI3
aI43
aa(lp7
I51
aI3
aI40
aa(lp8
I50
aI2
aI36
aa(lp9
I46
aI2
aI44
aa(lp10
I49
aI2
aI38
aa(lp11
I54
aI1
aI29
aa(lp12
I58
aI1
aI24
aa(lp13
I55
aI4
aI39
aa(lp14
I54
aI0
aI31
aaa(lp15
(lp16
I15
aI0
aI15
aa(lp17
I24
aI1
aI15
aa(lp18
I42
aI1
aI67
aa(lp19
I29
aI4
aI62
aa(lp20
I29
aI2
aI65
aa(lp21
I27
aI1
aI49
aa(lp22
I36
aI1
aI54
aa(lp23
I29
aI2
aI59
aa(lp24
I37
aI4
aI55
aa(lp25
I49
aI0
aI45
aa(lp26
I46
aI4
aI43
aa(lp27
I39
aI2
aI38
aa(lp28
I56
aI4
aI39
aaa(lp29
(lp30
I20
aI1
aI15
aa(lp31
I5
aI2
aI14
aa(lp32
I24
aI0
aI11
aa(lp33
I29
aI0
aI61
aa(lp34
I28
aI1
aI55
aa(lp35
I28
aI1
aI45
aa(lp36
I46
aI0
aI57
aa(lp37
I35
aI4
aI61
aa(lp38
I39
aI1
aI64
aa(lp39
I48
aI3
aI43
aa(lp40
I45
aI3
aI39
aa(lp41
I45
aI0
aI42
aa(lp42
I47
aI2
aI31
aaa(lp43
(lp44
I15
aI2
aI12
aa(lp45
I8
aI2
aI20
aa(lp46
I7
aI1
aI13
aa(lp47
I31
aI0
aI17
aa(lp48
I38
aI1
aI51
aa(lp49
I35
aI3
aI58
aa(lp50
I29
aI5
aI58
aa(lp51
I33
aI2
aI53
aa(lp52
I34
aI1
aI51
aa(lp53
I48
aI1
aI50
aa(lp54
I47
aI3
aI50
aa(lp55
I43
aI0
aI41
aa(lp56
I51
aI3
aI36
aaa(lp57
(lp58
I17
aI0
aI9
aa(lp59
I12
aI0
aI30
aa(lp60
I7
aI0
aI15
aa(lp61
I11
aI0
aI16
aa(lp62
I19
aI0
aI12
aa(lp63
I37
aI2
aI51
aa(lp64
I34
aI2
aI52
aa(lp65
I38
aI2
aI62
aa(lp66
I28
aI4
aI56
aa(lp67
I40
aI2
aI46
aa(lp68
I48
aI2
aI43
aa(lp69
I30
aI2
aI47
aa(lp70
I45
aI0
aI41
aaa(lp71
(lp72
I22
aI1
aI14
aa(lp73
I14
aI0
aI18
aa(lp74
I18
aI0
aI19
aa(lp75
I13
aI1
aI19
aa(lp76
I16
aI0
aI15
aa(lp77
I39
aI0
aI12
aa(lp78
I27
aI2
aI54
aa(lp79
I42
aI2
aI61
aa(lp80
I37
aI0
aI51
aa(lp81
I38
aI3
aI47
aa(lp82
I33
aI0
aI44
aa(lp83
I41
aI2
aI47
aa(lp84
I52
aI3
aI30
aaa(lp85
(lp86
I25
aI1
aI15
aa(lp87
I16
aI0
aI17
aa(lp88
I10
aI0
aI24
aa(lp89
I6
aI3
aI11
aa(lp90
I16
aI0
aI16
aa(lp91
I13
aI0
aI19
aa(lp92
I29
aI1
aI16
aa(lp93
I37
aI2
aI50
aa(lp94
I29
aI2
aI53
aa(lp95
I46
aI1
aI40
aa(lp96
I38
aI0
aI51
aa(lp97
I38
aI2
aI50
aa(lp98
I54
aI3
aI43
aaa(lp99
(lp100
I10
aI1
aI15
aa(lp101
I7
aI1
aI19
aa(lp102
I13
aI1
aI19
aa(lp103
I14
aI1
aI18
aa(lp104
I11
aI1
aI16
aa(lp105
I9
aI0
aI14
aa(lp106
I11
aI1
aI15
aa(lp107
I32
aI0
aI14
aa(lp108
I28
aI2
aI43
aa(lp109
I49
aI0
aI40
aa(lp110
I51
aI0
aI55
aa(lp111
I42
aI2
aI49
aa(lp112
I33
aI0
aI39
aaa(lp113
(lp114
I18
aI2
aI17
aa(lp115
I13
aI1
aI19
aa(lp116
I12
aI1
aI23
aa(lp117
I7
aI0
aI12
aa(lp118
I8
aI0
aI19
aa(lp119
I12
aI0
aI19
aa(lp120
I9
aI2
aI17
aa(lp121
I17
aI1
aI12
aa(lp122
I26
aI0
aI23
aa(lp123
I41
aI1
aI44
aa(lp124
I59
aI1
aI46
aa(lp125
I42
aI3
aI45
aa(lp126
I49
aI1
aI42
aaa(lp127
(lp128
I16
aI1
aI8
aa(lp129
I12
aI1
aI17
aa(lp130
I13
aI0
aI14
aa(lp131
I16
aI0
aI15
aa(lp132
I18
aI0
aI14
aa(lp133
I13
aI0
aI14
aa(lp134
I16
aI1
aI14
aa(lp135
I19
aI0
aI15
aa(lp136
I15
aI0
aI17
aa(lp137
I43
aI0
aI5
aa(lp138
I51
aI3
aI43
aa(lp139
I67
aI0
aI38
aa(lp140
I68
aI4
aI38
aaa(lp141
(lp142
I20
aI1
aI12
aa(lp143
I13
aI0
aI12
aa(lp144
I15
aI0
aI27
aa(lp145
I10
aI0
aI22
aa(lp146
I17
aI0
aI15
aa(lp147
I22
aI0
aI7
aa(lp148
I15
aI0
aI9
aa(lp149
I13
aI0
aI15
aa(lp150
I13
aI1
aI17
aa(lp151
I14
aI0
aI8
aa(lp152
I37
aI0
aI5
aa(lp153
I64
aI0
aI31
aa(lp154
I42
aI7
aI36
aaa(lp155
(lp156
I16
aI0
aI6
aa(lp157
I16
aI1
aI13
aa(lp158
I17
aI2
aI18
aa(lp159
I20
aI1
aI16
aa(lp160
I14
aI2
aI11
aa(lp161
I15
aI1
aI11
aa(lp162
I13
aI0
aI16
aa(lp163
I13
aI1
aI10
aa(lp164
I13
aI1
aI14
aa(lp165
I19
aI0
aI13
aa(lp166
I13
aI0
aI11
aa(lp167
I40
aI0
aI15
aa(lp168
I56
aI1
aI30
aaa(lp169
(lp170
I23
aI1
aI7
aa(lp171
I16
aI2
aI13
aa(lp172
I17
aI2
aI13
aa(lp173
I17
aI0
aI11
aa(lp174
I15
aI0
aI16
aa(lp175
I16
aI0
aI13
aa(lp176
I17
aI3
aI12
aa(lp177
I15
aI0
aI12
aa(lp178
I20
aI0
aI12
aa(lp179
I23
aI0
aI20
aa(lp180
I18
aI0
aI11
aa(lp181
I18
aI0
aI10
aa(lp182
I37
aI0
aI5
aaa.